; Function Attrs: mustprogress nofree norecurse nosync nounwind willreturn memory(argmem: readwrite) uwtable
define hidden range(i32 -1, 1) i32 @av1_get_raw_frame(ptr nocapture noundef readonly %0, i64 noundef %1, ptr nocapture noundef writeonly %2, ptr nocapture noundef writeonly %3) local_unnamed_addr #7 {
  %5 = getelementptr inbounds nuw i8, ptr %0, i64 431832
  %6 = load i64, ptr %5, align 8
  %.not = icmp ult i64 %1, %6
  br i1 %.not, label %7, label %14

7:                                                ; preds = %4
  %8 = getelementptr inbounds nuw i8, ptr %0, i64 431800
  %9 = getelementptr inbounds [4 x ptr], ptr %8, i64 0, i64 %1
  %10 = load ptr, ptr %9, align 8
  %11 = getelementptr inbounds nuw i8, ptr %10, i64 1312
  store ptr %11, ptr %2, align 8
  %12 = load ptr, ptr %9, align 8
  %13 = getelementptr inbounds nuw i8, ptr %12, i64 636
  store ptr %13, ptr %3, align 8
  br label %14

14:                                               ; preds = %4, %7
  %.0 = phi i32 [ 0, %7 ], [ -1, %4 ]
  ret i32 %.0
}